target datalayout = "e-m:e-p270:32:32-p271:32:32-p272:64:64-i64:64-i128:128-f80:128-n8:16:32:64-S128"
target triple = "x86_64-pc-linux-gnu"

%struct.AVChannelLayout = type { i32, i32, %union.anon.1, ptr }
%union.anon.1 = type { i64 }
%struct.AVRational = type { i32, i32 }
%struct.AVFrame = type { [8 x ptr], [8 x i32], ptr, i32, i32, i32, i32, i32, %struct.AVRational, i64, i64, %struct.AVRational, i32, ptr, i32, i32, [8 x ptr], ptr, i32, ptr, i32, i32, i32, i32, i32, i32, i32, i64, ptr, i32, ptr, ptr, i64, i64, i64, i64, ptr, %struct.AVChannelLayout, i64 }

; Function Attrs: nounwind uwtable
define internal void @set_pixel1(ptr noundef %0, i32 noundef %1, i32 noundef %2, i32 noundef %3, i32 noundef %4, i32 noundef %5, i32 noundef %6) #1 {
  %8 = alloca ptr, align 8
  %9 = alloca i32, align 4
  %10 = alloca i32, align 4
  %11 = alloca i32, align 4
  %12 = alloca i32, align 4
  %13 = alloca i32, align 4
  %14 = alloca i32, align 4
  store ptr %0, ptr %8, align 8, !tbaa !26
  store i32 %1, ptr %9, align 4, !tbaa !36
  store i32 %2, ptr %10, align 4, !tbaa !36
  store i32 %3, ptr %11, align 4, !tbaa !36
  store i32 %4, ptr %12, align 4, !tbaa !36
  store i32 %5, ptr %13, align 4, !tbaa !36
  store i32 %6, ptr %14, align 4, !tbaa !36
  %15 = load i32, ptr %11, align 4, !tbaa !36
  %16 = trunc i32 %15 to i8
  %17 = load ptr, ptr %8, align 8, !tbaa !26
  %18 = getelementptr inbounds nuw %struct.AVFrame, ptr %17, i32 0, i32 0
  %19 = getelementptr inbounds [8 x ptr], ptr %18, i64 0, i64 0
  %20 = load ptr, ptr %19, align 8, !tbaa !70
  %21 = load i32, ptr %10, align 4, !tbaa !36
  %22 = load ptr, ptr %8, align 8, !tbaa !26
  %23 = getelementptr inbounds nuw %struct.AVFrame, ptr %22, i32 0, i32 1
  %24 = getelementptr inbounds [8 x i32], ptr %23, i64 0, i64 0
  %25 = load i32, ptr %24, align 8, !tbaa !36
  %26 = mul nsw i32 %21, %25
  %27 = load i32, ptr %9, align 4, !tbaa !36
  %28 = add nsw i32 %26, %27
  %29 = sext i32 %28 to i64
  %30 = getelementptr inbounds i8, ptr %20, i64 %29
  store i8 %16, ptr %30, align 1, !tbaa !71
  ret void
}