; Function Attrs: mustprogress nofree norecurse nosync nounwind willreturn memory(write, argmem: readwrite, inaccessiblemem: none) uwtable
define internal void @set_pixel1(ptr noundef readonly captures(none) %0, i32 noundef %1, i32 noundef %2, i32 noundef %3, i32 %4, i32 %5, i32 %6) #4 {
  %8 = trunc i32 %3 to i8
  %9 = load ptr, ptr %0, align 8, !tbaa !65
  %10 = getelementptr inbounds nuw i8, ptr %0, i64 64
  %11 = load i32, ptr %10, align 8, !tbaa !31
  %12 = mul nsw i32 %11, %2
  %13 = add nsw i32 %12, %1
  %14 = sext i32 %13 to i64
  %15 = getelementptr inbounds i8, ptr %9, i64 %14
  store i8 %8, ptr %15, align 1, !tbaa !66
  ret void
}